target datalayout = "e-m:e-p270:32:32-p271:32:32-p272:64:64-i64:64-i128:128-f80:128-n8:16:32:64-S128"
target triple = "x86_64-pc-linux-gnu"

%struct.pmix_mca_base_framework_t = type { ptr, ptr, ptr, ptr, ptr, ptr, i32, i32, ptr, ptr, i32, i32, %struct.pmix_list_t, %struct.pmix_list_t }
%struct.pmix_list_t = type { %struct.pmix_object_t, %struct.pmix_list_item_t, i64 }
%struct.pmix_object_t = type { %union.pthread_mutex_t, ptr, i32, %struct.pmix_tma }
%union.pthread_mutex_t = type { %struct.__pthread_mutex_s }
%struct.__pthread_mutex_s = type { i32, i32, i32, i32, i32, i16, i16, %struct.__pthread_internal_list }
%struct.__pthread_internal_list = type { ptr, ptr }
%struct.pmix_tma = type { ptr, ptr, ptr, ptr, ptr, ptr, ptr, ptr }
%struct.pmix_list_item_t = type { %struct.pmix_object_t, ptr, ptr, i32 }
%struct.pmix_output_desc_t = type { i8, i8, i32, i8, i32, ptr, ptr, i32, ptr, i32, i8, i8, i8, i8, ptr, i32, i32 }
%struct.prte_process_info_t = type { %struct.pmix_proc, %struct.pmix_proc, ptr, %struct.pmix_proc, i32, i32, i32, ptr, ptr, i32, i8, ptr, i16, ptr, ptr, i8, ptr, i8 }
%struct.pmix_proc = type { [256 x i8], i32 }

@prte_odls_base_framework = external global %struct.pmix_mca_base_framework_t, align 8
@pmix_output_info = external global [0 x %struct.pmix_output_desc_t], align 8
@.str.2 = private unnamed_addr constant [52 x i8] c"%s odls:default:SENT KILL %d TO PID %d GOT ERRNO %d\00", align 1
@prte_process_info = external global %struct.prte_process_info_t, align 8
@.str.3 = private unnamed_addr constant [47 x i8] c"%s odls:default:SENT KILL %d TO PID %d SUCCESS\00", align 1

; Function Attrs: nounwind uwtable
define internal i32 @odls_default_kill_local(i32 noundef %0, i32 noundef %1) #1 {
  %3 = alloca i32, align 4
  %4 = alloca i32, align 4
  %5 = alloca i32, align 4
  %6 = alloca i32, align 4
  %7 = alloca i32, align 4
  store i32 %0, ptr %4, align 4, !tbaa !8
  store i32 %1, ptr %5, align 4, !tbaa !8
  call void @llvm.lifetime.start.p0(i64 4, ptr %6) #13
  %8 = load i32, ptr %4, align 4, !tbaa !8
  %9 = call i32 @getpgid(i32 noundef %8) #13
  store i32 %9, ptr %6, align 4, !tbaa !8
  %10 = load i32, ptr %6, align 4, !tbaa !8
  %11 = icmp ne i32 -1, %10
  br i1 %11, label %12, label %15

12:                                               ; preds = %2
  %13 = load i32, ptr %6, align 4, !tbaa !8
  %14 = sub nsw i32 0, %13
  store i32 %14, ptr %4, align 4, !tbaa !8
  br label %15

15:                                               ; preds = %12, %2
  %16 = load i32, ptr %4, align 4, !tbaa !8
  %17 = load i32, ptr %5, align 4, !tbaa !8
  %18 = call i32 @kill(i32 noundef %16, i32 noundef %17) #13
  %19 = icmp ne i32 0, %18
  br i1 %19, label %20, label %48

20:                                               ; preds = %15
  %21 = call ptr @__errno_location() #14
  %22 = load i32, ptr %21, align 4, !tbaa !8
  %23 = icmp ne i32 3, %22
  br i1 %23, label %24, label %47

24:                                               ; preds = %20
  %25 = load i32, ptr getelementptr inbounds nuw (%struct.pmix_mca_base_framework_t, ptr @prte_odls_base_framework, i32 0, i32 11), align 4, !tbaa !10
  %26 = icmp sge i32 %25, 0
  br i1 %26, label %27, label %44

27:                                               ; preds = %24
  %28 = load i32, ptr getelementptr inbounds nuw (%struct.pmix_mca_base_framework_t, ptr @prte_odls_base_framework, i32 0, i32 11), align 4, !tbaa !10
  %29 = icmp slt i32 %28, 64
  br i1 %29, label %30, label %44

30:                                               ; preds = %27
  %31 = load i32, ptr getelementptr inbounds nuw (%struct.pmix_mca_base_framework_t, ptr @prte_odls_base_framework, i32 0, i32 11), align 4, !tbaa !10
  %32 = sext i32 %31 to i64
  %33 = getelementptr inbounds [0 x %struct.pmix_output_desc_t], ptr @pmix_output_info, i64 0, i64 %32
  %34 = getelementptr inbounds nuw %struct.pmix_output_desc_t, ptr %33, i32 0, i32 2
  %35 = load i32, ptr %34, align 4, !tbaa !21
  %36 = icmp sge i32 %35, 2
  br i1 %36, label %37, label %44

37:                                               ; preds = %30
  %38 = load i32, ptr getelementptr inbounds nuw (%struct.pmix_mca_base_framework_t, ptr @prte_odls_base_framework, i32 0, i32 11), align 4, !tbaa !10
  %39 = call ptr @prte_util_print_name_args(ptr noundef @prte_process_info)
  %40 = load i32, ptr %5, align 4, !tbaa !8
  %41 = load i32, ptr %4, align 4, !tbaa !8
  %42 = call ptr @__errno_location() #14
  %43 = load i32, ptr %42, align 4, !tbaa !8
  call void (i32, ptr, ...) @pmix_output(i32 noundef %38, ptr noundef @.str.2, ptr noundef %39, i32 noundef %40, i32 noundef %41, i32 noundef %43)
  br label %44

44:                                               ; preds = %37, %30, %27, %24
  %45 = call ptr @__errno_location() #14
  %46 = load i32, ptr %45, align 4, !tbaa !8
  store i32 %46, ptr %3, align 4
  store i32 1, ptr %7, align 4
  br label %67

47:                                               ; preds = %20
  br label %48

48:                                               ; preds = %47, %15
  %49 = load i32, ptr getelementptr inbounds nuw (%struct.pmix_mca_base_framework_t, ptr @prte_odls_base_framework, i32 0, i32 11), align 4, !tbaa !10
  %50 = icmp sge i32 %49, 0
  br i1 %50, label %51, label %66

51:                                               ; preds = %48
  %52 = load i32, ptr getelementptr inbounds nuw (%struct.pmix_mca_base_framework_t, ptr @prte_odls_base_framework, i32 0, i32 11), align 4, !tbaa !10
  %53 = icmp slt i32 %52, 64
  br i1 %53, label %54, label %66

54:                                               ; preds = %51
  %55 = load i32, ptr getelementptr inbounds nuw (%struct.pmix_mca_base_framework_t, ptr @prte_odls_base_framework, i32 0, i32 11), align 4, !tbaa !10
  %56 = sext i32 %55 to i64
  %57 = getelementptr inbounds [0 x %struct.pmix_output_desc_t], ptr @pmix_output_info, i64 0, i64 %56
  %58 = getelementptr inbounds nuw %struct.pmix_output_desc_t, ptr %57, i32 0, i32 2
  %59 = load i32, ptr %58, align 4, !tbaa !21
  %60 = icmp sge i32 %59, 2
  br i1 %60, label %61, label %66

61:                                               ; preds = %54
  %62 = load i32, ptr getelementptr inbounds nuw (%struct.pmix_mca_base_framework_t, ptr @prte_odls_base_framework, i32 0, i32 11), align 4, !tbaa !10
  %63 = call ptr @prte_util_print_name_args(ptr noundef @prte_process_info)
  %64 = load i32, ptr %5, align 4, !tbaa !8
  %65 = load i32, ptr %4, align 4, !tbaa !8
  call void (i32, ptr, ...) @pmix_output(i32 noundef %62, ptr noundef @.str.3, ptr noundef %63, i32 noundef %64, i32 noundef %65)
  br label %66

66:                                               ; preds = %61, %54, %51, %48
  store i32 0, ptr %3, align 4
  store i32 1, ptr %7, align 4
  br label %67

67:                                               ; preds = %66, %44
  call void @llvm.lifetime.end.p0(i64 4, ptr %6) #13
  %68 = load i32, ptr %3, align 4
  ret i32 %68
}