; Function Attrs: nounwind uwtable
define internal i32 @odls_default_kill_local(i32 noundef %0, i32 noundef %1) #1 {
  %3 = tail call i32 @getpgid(i32 noundef %0) #16
  %.not = icmp eq i32 %3, -1
  %4 = sub nsw i32 0, %3
  %spec.select = select i1 %.not, i32 %0, i32 %4
  %5 = tail call i32 @kill(i32 noundef %spec.select, i32 noundef %1) #16
  %.not17 = icmp eq i32 %5, 0
  br i1 %.not17, label %19, label %6

6:                                                ; preds = %2
  %7 = tail call ptr @__errno_location() #18
  %8 = load i32, ptr %7, align 4, !tbaa !23
  %.not18 = icmp eq i32 %8, 3
  br i1 %.not18, label %19, label %9

9:                                                ; preds = %6
  %10 = load i32, ptr getelementptr inbounds nuw (i8, ptr @prte_odls_base_framework, i64 76), align 4, !tbaa !3
  %or.cond = icmp ult i32 %10, 64
  br i1 %or.cond, label %11, label %28

11:                                               ; preds = %9
  %12 = zext nneg i32 %10 to i64
  %13 = getelementptr inbounds nuw [0 x %struct.pmix_output_desc_t], ptr @pmix_output_info, i64 0, i64 %12, i32 2
  %14 = load i32, ptr %13, align 4, !tbaa !18
  %15 = icmp sgt i32 %14, 1
  br i1 %15, label %16, label %28

16:                                               ; preds = %11
  %17 = tail call ptr @prte_util_print_name_args(ptr noundef nonnull @prte_process_info) #16
  %18 = load i32, ptr %7, align 4, !tbaa !23
  tail call void (i32, ptr, ...) @pmix_output(i32 noundef %10, ptr noundef nonnull @.str.2, ptr noundef %17, i32 noundef %1, i32 noundef %spec.select, i32 noundef %18) #16
  %.pre = load i32, ptr %7, align 4, !tbaa !23
  br label %28

19:                                               ; preds = %6, %2
  %20 = load i32, ptr getelementptr inbounds nuw (i8, ptr @prte_odls_base_framework, i64 76), align 4, !tbaa !3
  %or.cond3 = icmp ult i32 %20, 64
  br i1 %or.cond3, label %21, label %28

21:                                               ; preds = %19
  %22 = zext nneg i32 %20 to i64
  %23 = getelementptr inbounds nuw [0 x %struct.pmix_output_desc_t], ptr @pmix_output_info, i64 0, i64 %22, i32 2
  %24 = load i32, ptr %23, align 4, !tbaa !18
  %25 = icmp sgt i32 %24, 1
  br i1 %25, label %26, label %28

26:                                               ; preds = %21
  %27 = tail call ptr @prte_util_print_name_args(ptr noundef nonnull @prte_process_info) #16
  tail call void (i32, ptr, ...) @pmix_output(i32 noundef %20, ptr noundef nonnull @.str.3, ptr noundef %27, i32 noundef %1, i32 noundef %spec.select) #16
  br label %28

28:                                               ; preds = %9, %11, %16, %19, %21, %26
  %.0 = phi i32 [ 0, %26 ], [ 0, %21 ], [ 0, %19 ], [ %.pre, %16 ], [ %8, %11 ], [ %8, %9 ]
  ret i32 %.0
}